(dp0
Vjonathan
p1
(lp2
(dp3
Vtitle
p4
VEdgar
p5
sVurl
p6
Vedgar
p7
sVcomments
p8
I01
sVcontent
p9
V
p10
sVchapters
p11
(lp12
(dp13
Vcontent
p14
V\u000aContent goes here.\u000a
p15
sVurl
p16
Vedgar2
p17
sVtitle
p18
VEdgar chapter 2
p19
sa(dp20
Vcontent
p21
V\u000aContent goes here.\u000a
p22
sVurl
p23
Vedgar1
p24
sVtitle
p25
VEdgar chapter 1
p26
sasVredirect_url
p27
g10
sa(dp28
Vtitle
p29
VRhoda's book
p30
sVurl
p31
Vrhoda
p32
sVcomments
p33
I01
sVcontent
p34
g10
sVchapters
p35
(lp36
(dp37
Vcontent
p38
V\u000aContent goes here.\u000a
p39
sVurl
p40
Vrhoda1
p41
sVtitle
p42
VRhoda's book chapter 1
p43
sa(dp44
Vcontent
p45
V\u000aContent goes here.\u000a
p46
sVurl
p47
Vrhoda2
p48
sVtitle
p49
VRhoda's book chapter 2
p50
sasVredirect_url
p51
g10
sasVruth
p52
(lp53
(dp54
Vtitle
p55
VCongo 2
p56
sVurl
p57
Vcongo
p58
sVcomments
p59
I01
sVcontent
p60
g10
sVchapters
p61
(lp62
(dp63
Vcontent
p64
V\u000aContent goes here.\u000a
p65
sVurl
p66
Vcongo1
p67
sVtitle
p68
VCongo chapter 1
p69
sa(dp70
Vcontent
p71
V<p>Content goes here.</p>\u000a
p72
sVurl
p73
Vcongo2
p74
sVtitle
p75
VCongo chapter 2
p76
sasVredirect_url
p77
g10
sa(dp78
Vtitle
p79
VAncestors
p80
sVurl
p81
Vancestor
p82
sVcomments
p83
I01
sVcontent
p84
V<p>book description</p>\u000a
p85
sVchapters
p86
(lp87
(dp88
Vcontent
p89
V\u000aContent goes here.\u000a
p90
sVurl
p91
Vancestor1
p92
sVtitle
p93
VAncestors chapter 1
p94
sa(dp95
Vcontent
p96
V\u000aContent goes here.\u000a
p97
sVurl
p98
Vancestor2
p99
sVtitle
p100
VAncestors chapter 2
p101
sasVredirect_url
p102
g10
sasVfamily
p103
(lp104
(dp105
Vtitle
p106
VChris' website
p107
sVurl
p108
Vchris
p109
sVcomments
p110
I00
sVcontent
p111
V\u000aRedirecting in a few seconds...\u000a
p112
sVchapters
p113
(lp114
sVredirect_url
p115
Vhttp://www.chrisdclemens.com/
p116
sa(dp117
Vtitle
p118
VCambodia 88-93
p119
sVurl
p120
Vcambodia
p121
sVcomments
p122
I01
sVcontent
p123
V\u000aInformation about this book.\u000a
p124
sVchapters
p125
(lp126
(dp127
Vcontent
p128
V\u000aContent goes here.\u000a
p129
sVurl
p130
Vcambodia1
p131
sVtitle
p132
VCambodia 88-93 chapter 1
p133
sa(dp134
Vcontent
p135
V\u000aContent goes here.\u000a
p136
sVurl
p137
Vcambodia2
p138
sVtitle
p139
VCambodia 88-93 chapter 2
p140
sasVredirect_url
p141
g10
sas.